target datalayout = "e-m:e-p270:32:32-p271:32:32-p272:64:64-i64:64-i128:128-f80:128-n8:16:32:64-S128"
target triple = "x86_64-pc-linux-gnu"

; Function Attrs: nounwind uwtable
define i32 @CalcHashId_ex(ptr noundef %0, i32 noundef %1, ptr noundef %2, i32 noundef %3) #0 {
  %5 = alloca ptr, align 8
  %6 = alloca i32, align 4
  %7 = alloca ptr, align 8
  %8 = alloca i32, align 4
  %9 = alloca i32, align 4
  store ptr %0, ptr %5, align 8, !tbaa !7
  store i32 %1, ptr %6, align 4, !tbaa !3
  store ptr %2, ptr %7, align 8, !tbaa !7
  store i32 %3, ptr %8, align 4, !tbaa !3
  call void @llvm.lifetime.start.p0(i64 4, ptr %9) #9
  %10 = load i32, ptr %8, align 4, !tbaa !3
  %11 = icmp eq i32 %10, 4
  br i1 %11, label %12, label %17

12:                                               ; preds = %4
  %13 = load ptr, ptr %5, align 8, !tbaa !7
  %14 = load i32, ptr %6, align 4, !tbaa !3
  %15 = load ptr, ptr %7, align 8, !tbaa !7
  %16 = call i32 @wc_ShaHash(ptr noundef %13, i32 noundef %14, ptr noundef %15)
  store i32 %16, ptr %9, align 4, !tbaa !3
  br label %18

17:                                               ; preds = %4
  store i32 -174, ptr %9, align 4, !tbaa !3
  br label %18

18:                                               ; preds = %17, %12
  %19 = load i32, ptr %9, align 4, !tbaa !3
  call void @llvm.lifetime.end.p0(i64 4, ptr %9) #9
  ret i32 %19
}