; Function Attrs: nounwind uwtable
define i32 @CalcHashId_ex(ptr noundef %0, i32 noundef %1, ptr noundef %2, i32 noundef %3) local_unnamed_addr #2 {
  %5 = icmp eq i32 %3, 4
  br i1 %5, label %6, label %8

6:                                                ; preds = %4
  %7 = tail call i32 @wc_ShaHash(ptr noundef %0, i32 noundef %1, ptr noundef %2) #22
  br label %8

8:                                                ; preds = %4, %6
  %.0 = phi i32 [ %7, %6 ], [ -174, %4 ]
  ret i32 %.0
}